target datalayout = "e-m:e-p270:32:32-p271:32:32-p272:64:64-i64:64-i128:128-f80:128-n8:16:32:64-S128"
target triple = "x86_64-pc-linux-gnu"

%struct._phpdbg_param = type { i32, i64, i64, %struct.anon, %struct.anon.0, ptr, i64, ptr, ptr }
%struct.anon = type { ptr, i64 }
%struct.anon.0 = type { ptr, ptr }

@stderr = external global ptr, align 8
@.str.18 = private unnamed_addr constant [22 x i8] c"%s STR_PARAM(%s=%zu)\0A\00", align 1
@.str.19 = private unnamed_addr constant [20 x i8] c"%s ADDR_PARAM(%lu)\0A\00", align 1
@.str.20 = private unnamed_addr constant [32 x i8] c"%s NUMERIC_FILE_PARAM(%s:#%lu)\0A\00", align 1
@.str.21 = private unnamed_addr constant [23 x i8] c"%s FILE_PARAM(%s:%lu)\0A\00", align 1
@.str.22 = private unnamed_addr constant [25 x i8] c"%s METHOD_PARAM(%s::%s)\0A\00", align 1
@.str.23 = private unnamed_addr constant [33 x i8] c"%s NUMERIC_METHOD_PARAM(%s::%s)\0A\00", align 1
@.str.24 = private unnamed_addr constant [36 x i8] c"%s NUMERIC_FUNCTION_PARAM(%s::%ld)\0A\00", align 1
@.str.25 = private unnamed_addr constant [23 x i8] c"%s NUMERIC_PARAM(%ld)\0A\00", align 1
@.str.26 = private unnamed_addr constant [23 x i8] c"%s COND_PARAM(%s=%zu)\0A\00", align 1
@.str.27 = private unnamed_addr constant [21 x i8] c"%s OP_PARAM(%s=%zu)\0A\00", align 1

; Function Attrs: nounwind uwtable
define void @phpdbg_param_debug(ptr noundef %0, ptr noundef %1) #0 {
  %3 = alloca ptr, align 8
  %4 = alloca ptr, align 8
  store ptr %0, ptr %3, align 8
  store ptr %1, ptr %4, align 8
  %5 = load ptr, ptr %3, align 8
  %6 = icmp ne ptr %5, null
  br i1 %6, label %7, label %120

7:                                                ; preds = %2
  %8 = load ptr, ptr %3, align 8
  %9 = getelementptr inbounds %struct._phpdbg_param, ptr %8, i32 0, i32 0
  %10 = load i32, ptr %9, align 8
  %11 = icmp ne i32 %10, 0
  br i1 %11, label %12, label %120

12:                                               ; preds = %7
  %13 = load ptr, ptr %3, align 8
  %14 = getelementptr inbounds %struct._phpdbg_param, ptr %13, i32 0, i32 0
  %15 = load i32, ptr %14, align 8
  switch i32 %15, label %118 [
    i32 5, label %16
    i32 1, label %26
    i32 3, label %33
    i32 2, label %45
    i32 4, label %57
    i32 8, label %69
    i32 7, label %81
    i32 6, label %91
    i32 12, label %98
    i32 13, label %108
  ]

16:                                               ; preds = %12
  %17 = load ptr, ptr @stderr, align 8
  %18 = load ptr, ptr %4, align 8
  %19 = load ptr, ptr %3, align 8
  %20 = getelementptr inbounds %struct._phpdbg_param, ptr %19, i32 0, i32 5
  %21 = load ptr, ptr %20, align 8
  %22 = load ptr, ptr %3, align 8
  %23 = getelementptr inbounds %struct._phpdbg_param, ptr %22, i32 0, i32 6
  %24 = load i64, ptr %23, align 8
  %25 = call i32 (ptr, ptr, ...) @fprintf(ptr noundef %17, ptr noundef @.str.18, ptr noundef %18, ptr noundef %21, i64 noundef %24) #12
  br label %119

26:                                               ; preds = %12
  %27 = load ptr, ptr @stderr, align 8
  %28 = load ptr, ptr %4, align 8
  %29 = load ptr, ptr %3, align 8
  %30 = getelementptr inbounds %struct._phpdbg_param, ptr %29, i32 0, i32 2
  %31 = load i64, ptr %30, align 8
  %32 = call i32 (ptr, ptr, ...) @fprintf(ptr noundef %27, ptr noundef @.str.19, ptr noundef %28, i64 noundef %31) #12
  br label %119

33:                                               ; preds = %12
  %34 = load ptr, ptr @stderr, align 8
  %35 = load ptr, ptr %4, align 8
  %36 = load ptr, ptr %3, align 8
  %37 = getelementptr inbounds %struct._phpdbg_param, ptr %36, i32 0, i32 3
  %38 = getelementptr inbounds %struct.anon, ptr %37, i32 0, i32 0
  %39 = load ptr, ptr %38, align 8
  %40 = load ptr, ptr %3, align 8
  %41 = getelementptr inbounds %struct._phpdbg_param, ptr %40, i32 0, i32 3
  %42 = getelementptr inbounds %struct.anon, ptr %41, i32 0, i32 1
  %43 = load i64, ptr %42, align 8
  %44 = call i32 (ptr, ptr, ...) @fprintf(ptr noundef %34, ptr noundef @.str.20, ptr noundef %35, ptr noundef %39, i64 noundef %43) #12
  br label %119

45:                                               ; preds = %12
  %46 = load ptr, ptr @stderr, align 8
  %47 = load ptr, ptr %4, align 8
  %48 = load ptr, ptr %3, align 8
  %49 = getelementptr inbounds %struct._phpdbg_param, ptr %48, i32 0, i32 3
  %50 = getelementptr inbounds %struct.anon, ptr %49, i32 0, i32 0
  %51 = load ptr, ptr %50, align 8
  %52 = load ptr, ptr %3, align 8
  %53 = getelementptr inbounds %struct._phpdbg_param, ptr %52, i32 0, i32 3
  %54 = getelementptr inbounds %struct.anon, ptr %53, i32 0, i32 1
  %55 = load i64, ptr %54, align 8
  %56 = call i32 (ptr, ptr, ...) @fprintf(ptr noundef %46, ptr noundef @.str.21, ptr noundef %47, ptr noundef %51, i64 noundef %55) #12
  br label %119

57:                                               ; preds = %12
  %58 = load ptr, ptr @stderr, align 8
  %59 = load ptr, ptr %4, align 8
  %60 = load ptr, ptr %3, align 8
  %61 = getelementptr inbounds %struct._phpdbg_param, ptr %60, i32 0, i32 4
  %62 = getelementptr inbounds %struct.anon.0, ptr %61, i32 0, i32 0
  %63 = load ptr, ptr %62, align 8
  %64 = load ptr, ptr %3, align 8
  %65 = getelementptr inbounds %struct._phpdbg_param, ptr %64, i32 0, i32 4
  %66 = getelementptr inbounds %struct.anon.0, ptr %65, i32 0, i32 1
  %67 = load ptr, ptr %66, align 8
  %68 = call i32 (ptr, ptr, ...) @fprintf(ptr noundef %58, ptr noundef @.str.22, ptr noundef %59, ptr noundef %63, ptr noundef %67) #12
  br label %119

69:                                               ; preds = %12
  %70 = load ptr, ptr @stderr, align 8
  %71 = load ptr, ptr %4, align 8
  %72 = load ptr, ptr %3, align 8
  %73 = getelementptr inbounds %struct._phpdbg_param, ptr %72, i32 0, i32 4
  %74 = getelementptr inbounds %struct.anon.0, ptr %73, i32 0, i32 0
  %75 = load ptr, ptr %74, align 8
  %76 = load ptr, ptr %3, align 8
  %77 = getelementptr inbounds %struct._phpdbg_param, ptr %76, i32 0, i32 4
  %78 = getelementptr inbounds %struct.anon.0, ptr %77, i32 0, i32 1
  %79 = load ptr, ptr %78, align 8
  %80 = call i32 (ptr, ptr, ...) @fprintf(ptr noundef %70, ptr noundef @.str.23, ptr noundef %71, ptr noundef %75, ptr noundef %79) #12
  br label %119

81:                                               ; preds = %12
  %82 = load ptr, ptr @stderr, align 8
  %83 = load ptr, ptr %4, align 8
  %84 = load ptr, ptr %3, align 8
  %85 = getelementptr inbounds %struct._phpdbg_param, ptr %84, i32 0, i32 5
  %86 = load ptr, ptr %85, align 8
  %87 = load ptr, ptr %3, align 8
  %88 = getelementptr inbounds %struct._phpdbg_param, ptr %87, i32 0, i32 1
  %89 = load i64, ptr %88, align 8
  %90 = call i32 (ptr, ptr, ...) @fprintf(ptr noundef %82, ptr noundef @.str.24, ptr noundef %83, ptr noundef %86, i64 noundef %89) #12
  br label %119

91:                                               ; preds = %12
  %92 = load ptr, ptr @stderr, align 8
  %93 = load ptr, ptr %4, align 8
  %94 = load ptr, ptr %3, align 8
  %95 = getelementptr inbounds %struct._phpdbg_param, ptr %94, i32 0, i32 1
  %96 = load i64, ptr %95, align 8
  %97 = call i32 (ptr, ptr, ...) @fprintf(ptr noundef %92, ptr noundef @.str.25, ptr noundef %93, i64 noundef %96) #12
  br label %119

98:                                               ; preds = %12
  %99 = load ptr, ptr @stderr, align 8
  %100 = load ptr, ptr %4, align 8
  %101 = load ptr, ptr %3, align 8
  %102 = getelementptr inbounds %struct._phpdbg_param, ptr %101, i32 0, i32 5
  %103 = load ptr, ptr %102, align 8
  %104 = load ptr, ptr %3, align 8
  %105 = getelementptr inbounds %struct._phpdbg_param, ptr %104, i32 0, i32 6
  %106 = load i64, ptr %105, align 8
  %107 = call i32 (ptr, ptr, ...) @fprintf(ptr noundef %99, ptr noundef @.str.26, ptr noundef %100, ptr noundef %103, i64 noundef %106) #12
  br label %119

108:                                              ; preds = %12
  %109 = load ptr, ptr @stderr, align 8
  %110 = load ptr, ptr %4, align 8
  %111 = load ptr, ptr %3, align 8
  %112 = getelementptr inbounds %struct._phpdbg_param, ptr %111, i32 0, i32 5
  %113 = load ptr, ptr %112, align 8
  %114 = load ptr, ptr %3, align 8
  %115 = getelementptr inbounds %struct._phpdbg_param, ptr %114, i32 0, i32 6
  %116 = load i64, ptr %115, align 8
  %117 = call i32 (ptr, ptr, ...) @fprintf(ptr noundef %109, ptr noundef @.str.27, ptr noundef %110, ptr noundef %113, i64 noundef %116) #12
  br label %119

118:                                              ; preds = %12
  br label %119

119:                                              ; preds = %118, %108, %98, %91, %81, %69, %57, %45, %33, %26, %16
  br label %120

120:                                              ; preds = %119, %7, %2
  ret void
}