; Function Attrs: nofree nounwind uwtable
define void @phpdbg_param_debug(ptr noundef readonly %0, ptr noundef %1) local_unnamed_addr #7 {
  %.not = icmp eq ptr %0, null
  br i1 %.not, label %71, label %3

3:                                                ; preds = %2
  %4 = load i32, ptr %0, align 8
  switch i32 %4, label %71 [
    i32 13, label %64
    i32 5, label %5
    i32 1, label %12
    i32 3, label %17
    i32 2, label %24
    i32 4, label %31
    i32 8, label %38
    i32 7, label %45
    i32 6, label %52
    i32 12, label %57
  ]

5:                                                ; preds = %3
  %6 = load ptr, ptr @stderr, align 8
  %7 = getelementptr inbounds i8, ptr %0, i64 56
  %8 = load ptr, ptr %7, align 8
  %9 = getelementptr inbounds i8, ptr %0, i64 64
  %10 = load i64, ptr %9, align 8
  %11 = tail call i32 (ptr, ptr, ...) @fprintf(ptr noundef %6, ptr noundef nonnull @.str.18, ptr noundef %1, ptr noundef %8, i64 noundef %10) #24
  br label %71

12:                                               ; preds = %3
  %13 = load ptr, ptr @stderr, align 8
  %14 = getelementptr inbounds i8, ptr %0, i64 16
  %15 = load i64, ptr %14, align 8
  %16 = tail call i32 (ptr, ptr, ...) @fprintf(ptr noundef %13, ptr noundef nonnull @.str.19, ptr noundef %1, i64 noundef %15) #24
  br label %71

17:                                               ; preds = %3
  %18 = load ptr, ptr @stderr, align 8
  %19 = getelementptr inbounds i8, ptr %0, i64 24
  %20 = load ptr, ptr %19, align 8
  %21 = getelementptr inbounds i8, ptr %0, i64 32
  %22 = load i64, ptr %21, align 8
  %23 = tail call i32 (ptr, ptr, ...) @fprintf(ptr noundef %18, ptr noundef nonnull @.str.20, ptr noundef %1, ptr noundef %20, i64 noundef %22) #24
  br label %71

24:                                               ; preds = %3
  %25 = load ptr, ptr @stderr, align 8
  %26 = getelementptr inbounds i8, ptr %0, i64 24
  %27 = load ptr, ptr %26, align 8
  %28 = getelementptr inbounds i8, ptr %0, i64 32
  %29 = load i64, ptr %28, align 8
  %30 = tail call i32 (ptr, ptr, ...) @fprintf(ptr noundef %25, ptr noundef nonnull @.str.21, ptr noundef %1, ptr noundef %27, i64 noundef %29) #24
  br label %71

31:                                               ; preds = %3
  %32 = load ptr, ptr @stderr, align 8
  %33 = getelementptr inbounds i8, ptr %0, i64 40
  %34 = load ptr, ptr %33, align 8
  %35 = getelementptr inbounds i8, ptr %0, i64 48
  %36 = load ptr, ptr %35, align 8
  %37 = tail call i32 (ptr, ptr, ...) @fprintf(ptr noundef %32, ptr noundef nonnull @.str.22, ptr noundef %1, ptr noundef %34, ptr noundef %36) #24
  br label %71

38:                                               ; preds = %3
  %39 = load ptr, ptr @stderr, align 8
  %40 = getelementptr inbounds i8, ptr %0, i64 40
  %41 = load ptr, ptr %40, align 8
  %42 = getelementptr inbounds i8, ptr %0, i64 48
  %43 = load ptr, ptr %42, align 8
  %44 = tail call i32 (ptr, ptr, ...) @fprintf(ptr noundef %39, ptr noundef nonnull @.str.23, ptr noundef %1, ptr noundef %41, ptr noundef %43) #24
  br label %71

45:                                               ; preds = %3
  %46 = load ptr, ptr @stderr, align 8
  %47 = getelementptr inbounds i8, ptr %0, i64 56
  %48 = load ptr, ptr %47, align 8
  %49 = getelementptr inbounds i8, ptr %0, i64 8
  %50 = load i64, ptr %49, align 8
  %51 = tail call i32 (ptr, ptr, ...) @fprintf(ptr noundef %46, ptr noundef nonnull @.str.24, ptr noundef %1, ptr noundef %48, i64 noundef %50) #24
  br label %71

52:                                               ; preds = %3
  %53 = load ptr, ptr @stderr, align 8
  %54 = getelementptr inbounds i8, ptr %0, i64 8
  %55 = load i64, ptr %54, align 8
  %56 = tail call i32 (ptr, ptr, ...) @fprintf(ptr noundef %53, ptr noundef nonnull @.str.25, ptr noundef %1, i64 noundef %55) #24
  br label %71

57:                                               ; preds = %3
  %58 = load ptr, ptr @stderr, align 8
  %59 = getelementptr inbounds i8, ptr %0, i64 56
  %60 = load ptr, ptr %59, align 8
  %61 = getelementptr inbounds i8, ptr %0, i64 64
  %62 = load i64, ptr %61, align 8
  %63 = tail call i32 (ptr, ptr, ...) @fprintf(ptr noundef %58, ptr noundef nonnull @.str.26, ptr noundef %1, ptr noundef %60, i64 noundef %62) #24
  br label %71

64:                                               ; preds = %3
  %65 = load ptr, ptr @stderr, align 8
  %66 = getelementptr inbounds i8, ptr %0, i64 56
  %67 = load ptr, ptr %66, align 8
  %68 = getelementptr inbounds i8, ptr %0, i64 64
  %69 = load i64, ptr %68, align 8
  %70 = tail call i32 (ptr, ptr, ...) @fprintf(ptr noundef %65, ptr noundef nonnull @.str.27, ptr noundef %1, ptr noundef %67, i64 noundef %69) #24
  br label %71

71:                                               ; preds = %3, %5, %12, %17, %24, %31, %38, %45, %52, %57, %64, %2
  ret void
}